target datalayout = "e-m:e-p270:32:32-p271:32:32-p272:64:64-i64:64-i128:128-f80:128-n8:16:32:64-S128"
target triple = "x86_64-pc-linux-gnu"

%struct.InvalMessageArray = type { ptr, i32 }
%struct.RelFileLocator = type { i32, i32, i32 }
%struct.SharedInvalSmgrMsg = type { i8, i8, i16, %struct.RelFileLocator }
%struct.TransInvalidationInfo = type { %struct.InvalidationInfo, %struct.InvalidationMsgsGroup, ptr, i32 }
%struct.InvalidationInfo = type { %struct.InvalidationMsgsGroup, i8 }
%struct.InvalidationMsgsGroup = type { [2 x i32], [2 x i32] }
%union.SharedInvalidationMessage = type { %struct.SharedInvalSmgrMsg }

@transInvalInfo = internal global ptr null, align 8
@InvalMessageArrays = internal global [2 x %struct.InvalMessageArray] zeroinitializer, align 16
@inplaceInvalInfo = internal global ptr null, align 8
@wal_level = external global i32, align 4

; Function Attrs: nounwind uwtable
define internal void @AppendInvalidationMessageSubGroup(ptr noundef %0, ptr noundef %1, i32 noundef %2) #0 {
  %4 = alloca ptr, align 8
  %5 = alloca ptr, align 8
  %6 = alloca i32, align 4
  store ptr %0, ptr %4, align 8
  store ptr %1, ptr %5, align 8
  store i32 %2, ptr %6, align 4
  %7 = load ptr, ptr %5, align 8
  %8 = getelementptr inbounds nuw %struct.InvalidationMsgsGroup, ptr %7, i32 0, i32 1
  %9 = load i32, ptr %6, align 4
  %10 = sext i32 %9 to i64
  %11 = getelementptr inbounds [2 x i32], ptr %8, i64 0, i64 %10
  %12 = load i32, ptr %11, align 4
  %13 = load ptr, ptr %4, align 8
  %14 = getelementptr inbounds nuw %struct.InvalidationMsgsGroup, ptr %13, i32 0, i32 1
  %15 = load i32, ptr %6, align 4
  %16 = sext i32 %15 to i64
  %17 = getelementptr inbounds [2 x i32], ptr %14, i64 0, i64 %16
  store i32 %12, ptr %17, align 4
  br label %18

18:                                               ; preds = %3
  %19 = load ptr, ptr %4, align 8
  %20 = getelementptr inbounds nuw %struct.InvalidationMsgsGroup, ptr %19, i32 0, i32 1
  %21 = load i32, ptr %6, align 4
  %22 = sext i32 %21 to i64
  %23 = getelementptr inbounds [2 x i32], ptr %20, i64 0, i64 %22
  %24 = load i32, ptr %23, align 4
  %25 = load ptr, ptr %5, align 8
  %26 = getelementptr inbounds nuw %struct.InvalidationMsgsGroup, ptr %25, i32 0, i32 1
  %27 = load i32, ptr %6, align 4
  %28 = sext i32 %27 to i64
  %29 = getelementptr inbounds [2 x i32], ptr %26, i64 0, i64 %28
  store i32 %24, ptr %29, align 4
  %30 = load ptr, ptr %5, align 8
  %31 = getelementptr inbounds nuw %struct.InvalidationMsgsGroup, ptr %30, i32 0, i32 0
  %32 = load i32, ptr %6, align 4
  %33 = sext i32 %32 to i64
  %34 = getelementptr inbounds [2 x i32], ptr %31, i64 0, i64 %33
  store i32 %24, ptr %34, align 4
  br label %35

35:                                               ; preds = %18
  ret void
}

; Function Attrs: nounwind uwtable
define internal void @ProcessInvalidationMessages(ptr noundef %0, ptr noundef %1) #0 {
  %3 = alloca ptr, align 8
  %4 = alloca ptr, align 8
  %5 = alloca i32, align 4
  %6 = alloca i32, align 4
  %7 = alloca ptr, align 8
  %8 = alloca i32, align 4
  %9 = alloca i32, align 4
  %10 = alloca ptr, align 8
  store ptr %0, ptr %3, align 8
  store ptr %1, ptr %4, align 8
  br label %11

11:                                               ; preds = %2
  call void @llvm.lifetime.start.p0(i64 4, ptr %5) #7
  %12 = load ptr, ptr %3, align 8
  %13 = getelementptr inbounds nuw %struct.InvalidationMsgsGroup, ptr %12, i32 0, i32 0
  %14 = getelementptr inbounds [2 x i32], ptr %13, i64 0, i64 0
  %15 = load i32, ptr %14, align 4
  store i32 %15, ptr %5, align 4
  call void @llvm.lifetime.start.p0(i64 4, ptr %6) #7
  %16 = load ptr, ptr %3, align 8
  %17 = getelementptr inbounds nuw %struct.InvalidationMsgsGroup, ptr %16, i32 0, i32 1
  %18 = getelementptr inbounds [2 x i32], ptr %17, i64 0, i64 0
  %19 = load i32, ptr %18, align 4
  store i32 %19, ptr %6, align 4
  br label %20

20:                                               ; preds = %31, %11
  %21 = load i32, ptr %5, align 4
  %22 = load i32, ptr %6, align 4
  %23 = icmp slt i32 %21, %22
  br i1 %23, label %24, label %34

24:                                               ; preds = %20
  call void @llvm.lifetime.start.p0(i64 8, ptr %7) #7
  %25 = load ptr, ptr @InvalMessageArrays, align 16
  %26 = load i32, ptr %5, align 4
  %27 = sext i32 %26 to i64
  %28 = getelementptr inbounds %union.SharedInvalidationMessage, ptr %25, i64 %27
  store ptr %28, ptr %7, align 8
  %29 = load ptr, ptr %4, align 8
  %30 = load ptr, ptr %7, align 8
  call void %29(ptr noundef %30)
  call void @llvm.lifetime.end.p0(i64 8, ptr %7) #7
  br label %31

31:                                               ; preds = %24
  %32 = load i32, ptr %5, align 4
  %33 = add i32 %32, 1
  store i32 %33, ptr %5, align 4
  br label %20, !llvm.loop !11

34:                                               ; preds = %20
  call void @llvm.lifetime.end.p0(i64 4, ptr %6) #7
  call void @llvm.lifetime.end.p0(i64 4, ptr %5) #7
  br label %35

35:                                               ; preds = %34
  br label %36

36:                                               ; preds = %35
  call void @llvm.lifetime.start.p0(i64 4, ptr %8) #7
  %37 = load ptr, ptr %3, align 8
  %38 = getelementptr inbounds nuw %struct.InvalidationMsgsGroup, ptr %37, i32 0, i32 0
  %39 = getelementptr inbounds [2 x i32], ptr %38, i64 0, i64 1
  %40 = load i32, ptr %39, align 4
  store i32 %40, ptr %8, align 4
  call void @llvm.lifetime.start.p0(i64 4, ptr %9) #7
  %41 = load ptr, ptr %3, align 8
  %42 = getelementptr inbounds nuw %struct.InvalidationMsgsGroup, ptr %41, i32 0, i32 1
  %43 = getelementptr inbounds [2 x i32], ptr %42, i64 0, i64 1
  %44 = load i32, ptr %43, align 4
  store i32 %44, ptr %9, align 4
  br label %45

45:                                               ; preds = %56, %36
  %46 = load i32, ptr %8, align 4
  %47 = load i32, ptr %9, align 4
  %48 = icmp slt i32 %46, %47
  br i1 %48, label %49, label %59

49:                                               ; preds = %45
  call void @llvm.lifetime.start.p0(i64 8, ptr %10) #7
  %50 = load ptr, ptr getelementptr inbounds ([2 x %struct.InvalMessageArray], ptr @InvalMessageArrays, i64 0, i64 1), align 16
  %51 = load i32, ptr %8, align 4
  %52 = sext i32 %51 to i64
  %53 = getelementptr inbounds %union.SharedInvalidationMessage, ptr %50, i64 %52
  store ptr %53, ptr %10, align 8
  %54 = load ptr, ptr %4, align 8
  %55 = load ptr, ptr %10, align 8
  call void %54(ptr noundef %55)
  call void @llvm.lifetime.end.p0(i64 8, ptr %10) #7
  br label %56

56:                                               ; preds = %49
  %57 = load i32, ptr %8, align 4
  %58 = add i32 %57, 1
  store i32 %58, ptr %8, align 4
  br label %45, !llvm.loop !12

59:                                               ; preds = %45
  call void @llvm.lifetime.end.p0(i64 4, ptr %9) #7
  call void @llvm.lifetime.end.p0(i64 4, ptr %8) #7
  br label %60

60:                                               ; preds = %59
  ret void
}

; Function Attrs: nounwind uwtable
define internal void @AppendInvalidationMessages(ptr noundef %0, ptr noundef %1) #0 {
  %3 = alloca ptr, align 8
  %4 = alloca ptr, align 8
  store ptr %0, ptr %3, align 8
  store ptr %1, ptr %4, align 8
  %5 = load ptr, ptr %3, align 8
  %6 = load ptr, ptr %4, align 8
  call void @AppendInvalidationMessageSubGroup(ptr noundef %5, ptr noundef %6, i32 noundef 0)
  %7 = load ptr, ptr %3, align 8
  %8 = load ptr, ptr %4, align 8
  call void @AppendInvalidationMessageSubGroup(ptr noundef %7, ptr noundef %8, i32 noundef 1)
  ret void
}

; Function Attrs: nounwind uwtable
define dso_local void @CommandEndInvalidationMessages() #0 {
  %1 = load ptr, ptr @transInvalInfo, align 8
  %2 = icmp eq ptr %1, null
  br i1 %2, label %3, label %4

3:                                                ; preds = %0
  br label %17

4:                                                ; preds = %0
  %5 = load ptr, ptr @transInvalInfo, align 8
  %6 = getelementptr inbounds nuw %struct.TransInvalidationInfo, ptr %5, i32 0, i32 0
  %7 = getelementptr inbounds nuw %struct.InvalidationInfo, ptr %6, i32 0, i32 0
  call void @ProcessInvalidationMessages(ptr noundef %7, ptr noundef @LocalExecuteInvalidationMessage)
  %8 = load i32, ptr @wal_level, align 4
  %9 = icmp sge i32 %8, 2
  br i1 %9, label %10, label %11

10:                                               ; preds = %4
  call void @LogLogicalInvalidations()
  br label %11

11:                                               ; preds = %10, %4
  %12 = load ptr, ptr @transInvalInfo, align 8
  %13 = getelementptr inbounds nuw %struct.TransInvalidationInfo, ptr %12, i32 0, i32 1
  %14 = load ptr, ptr @transInvalInfo, align 8
  %15 = getelementptr inbounds nuw %struct.TransInvalidationInfo, ptr %14, i32 0, i32 0
  %16 = getelementptr inbounds nuw %struct.InvalidationInfo, ptr %15, i32 0, i32 0
  call void @AppendInvalidationMessages(ptr noundef %13, ptr noundef %16)
  br label %17

17:                                               ; preds = %11, %3
  ret void
}

; Function Attrs: nounwind uwtable
define dso_local void @AtEOSubXact_Inval(i1 noundef zeroext %0) #0 {
  %2 = alloca i8, align 1
  %3 = alloca i32, align 4
  %4 = alloca ptr, align 8
  %5 = alloca i32, align 4
  %6 = zext i1 %0 to i8
  store i8 %6, ptr %2, align 1
  call void @llvm.lifetime.start.p0(i64 4, ptr %3) #7
  call void @llvm.lifetime.start.p0(i64 8, ptr %4) #7
  %7 = load i8, ptr %2, align 1, !range !4, !noundef !5
  %8 = trunc i8 %7 to i1
  br i1 %8, label %9, label %10

9:                                                ; preds = %1
  br label %11

10:                                               ; preds = %1
  store ptr null, ptr @inplaceInvalInfo, align 8
  br label %11

11:                                               ; preds = %10, %9
  %12 = load ptr, ptr @transInvalInfo, align 8
  store ptr %12, ptr %4, align 8
  %13 = load ptr, ptr %4, align 8
  %14 = icmp eq ptr %13, null
  br i1 %14, label %15, label %16

15:                                               ; preds = %11
  store i32 1, ptr %5, align 4
  br label %128

16:                                               ; preds = %11
  %17 = call i32 @GetCurrentTransactionNestLevel()
  store i32 %17, ptr %3, align 4
  %18 = load ptr, ptr %4, align 8
  %19 = getelementptr inbounds nuw %struct.TransInvalidationInfo, ptr %18, i32 0, i32 3
  %20 = load i32, ptr %19, align 8
  %21 = load i32, ptr %3, align 4
  %22 = icmp ne i32 %20, %21
  br i1 %22, label %23, label %24

23:                                               ; preds = %16
  store i32 1, ptr %5, align 4
  br label %128

24:                                               ; preds = %16
  %25 = load i8, ptr %2, align 1, !range !4, !noundef !5
  %26 = trunc i8 %25 to i1
  br i1 %26, label %27, label %120

27:                                               ; preds = %24
  call void @CommandEndInvalidationMessages()
  %28 = load ptr, ptr %4, align 8
  %29 = getelementptr inbounds nuw %struct.TransInvalidationInfo, ptr %28, i32 0, i32 2
  %30 = load ptr, ptr %29, align 8
  %31 = icmp eq ptr %30, null
  br i1 %31, label %41, label %32

32:                                               ; preds = %27
  %33 = load ptr, ptr %4, align 8
  %34 = getelementptr inbounds nuw %struct.TransInvalidationInfo, ptr %33, i32 0, i32 2
  %35 = load ptr, ptr %34, align 8
  %36 = getelementptr inbounds nuw %struct.TransInvalidationInfo, ptr %35, i32 0, i32 3
  %37 = load i32, ptr %36, align 8
  %38 = load i32, ptr %3, align 4
  %39 = sub i32 %38, 1
  %40 = icmp slt i32 %37, %39
  br i1 %40, label %41, label %46

41:                                               ; preds = %32, %27
  %42 = load ptr, ptr %4, align 8
  %43 = getelementptr inbounds nuw %struct.TransInvalidationInfo, ptr %42, i32 0, i32 3
  %44 = load i32, ptr %43, align 8
  %45 = add i32 %44, -1
  store i32 %45, ptr %43, align 8
  store i32 1, ptr %5, align 4
  br label %128

46:                                               ; preds = %32
  %47 = load ptr, ptr %4, align 8
  %48 = getelementptr inbounds nuw %struct.TransInvalidationInfo, ptr %47, i32 0, i32 2
  %49 = load ptr, ptr %48, align 8
  %50 = getelementptr inbounds nuw %struct.TransInvalidationInfo, ptr %49, i32 0, i32 1
  %51 = load ptr, ptr %4, align 8
  %52 = getelementptr inbounds nuw %struct.TransInvalidationInfo, ptr %51, i32 0, i32 1
  call void @AppendInvalidationMessages(ptr noundef %50, ptr noundef %52)
  br label %53

53:                                               ; preds = %46
  br label %54

54:                                               ; preds = %53
  %55 = load ptr, ptr %4, align 8
  %56 = getelementptr inbounds nuw %struct.TransInvalidationInfo, ptr %55, i32 0, i32 2
  %57 = load ptr, ptr %56, align 8
  %58 = getelementptr inbounds nuw %struct.TransInvalidationInfo, ptr %57, i32 0, i32 1
  %59 = getelementptr inbounds nuw %struct.InvalidationMsgsGroup, ptr %58, i32 0, i32 1
  %60 = getelementptr inbounds [2 x i32], ptr %59, i64 0, i64 0
  %61 = load i32, ptr %60, align 4
  %62 = load ptr, ptr %4, align 8
  %63 = getelementptr inbounds nuw %struct.TransInvalidationInfo, ptr %62, i32 0, i32 2
  %64 = load ptr, ptr %63, align 8
  %65 = getelementptr inbounds nuw %struct.TransInvalidationInfo, ptr %64, i32 0, i32 0
  %66 = getelementptr inbounds nuw %struct.InvalidationInfo, ptr %65, i32 0, i32 0
  %67 = getelementptr inbounds nuw %struct.InvalidationMsgsGroup, ptr %66, i32 0, i32 1
  %68 = getelementptr inbounds [2 x i32], ptr %67, i64 0, i64 0
  store i32 %61, ptr %68, align 8
  %69 = load ptr, ptr %4, align 8
  %70 = getelementptr inbounds nuw %struct.TransInvalidationInfo, ptr %69, i32 0, i32 2
  %71 = load ptr, ptr %70, align 8
  %72 = getelementptr inbounds nuw %struct.TransInvalidationInfo, ptr %71, i32 0, i32 0
  %73 = getelementptr inbounds nuw %struct.InvalidationInfo, ptr %72, i32 0, i32 0
  %74 = getelementptr inbounds nuw %struct.InvalidationMsgsGroup, ptr %73, i32 0, i32 0
  %75 = getelementptr inbounds [2 x i32], ptr %74, i64 0, i64 0
  store i32 %61, ptr %75, align 8
  br label %76

76:                                               ; preds = %54
  br label %77

77:                                               ; preds = %76
  br label %78

78:                                               ; preds = %77
  %79 = load ptr, ptr %4, align 8
  %80 = getelementptr inbounds nuw %struct.TransInvalidationInfo, ptr %79, i32 0, i32 2
  %81 = load ptr, ptr %80, align 8
  %82 = getelementptr inbounds nuw %struct.TransInvalidationInfo, ptr %81, i32 0, i32 1
  %83 = getelementptr inbounds nuw %struct.InvalidationMsgsGroup, ptr %82, i32 0, i32 1
  %84 = getelementptr inbounds [2 x i32], ptr %83, i64 0, i64 1
  %85 = load i32, ptr %84, align 4
  %86 = load ptr, ptr %4, align 8
  %87 = getelementptr inbounds nuw %struct.TransInvalidationInfo, ptr %86, i32 0, i32 2
  %88 = load ptr, ptr %87, align 8
  %89 = getelementptr inbounds nuw %struct.TransInvalidationInfo, ptr %88, i32 0, i32 0
  %90 = getelementptr inbounds nuw %struct.InvalidationInfo, ptr %89, i32 0, i32 0
  %91 = getelementptr inbounds nuw %struct.InvalidationMsgsGroup, ptr %90, i32 0, i32 1
  %92 = getelementptr inbounds [2 x i32], ptr %91, i64 0, i64 1
  store i32 %85, ptr %92, align 4
  %93 = load ptr, ptr %4, align 8
  %94 = getelementptr inbounds nuw %struct.TransInvalidationInfo, ptr %93, i32 0, i32 2
  %95 = load ptr, ptr %94, align 8
  %96 = getelementptr inbounds nuw %struct.TransInvalidationInfo, ptr %95, i32 0, i32 0
  %97 = getelementptr inbounds nuw %struct.InvalidationInfo, ptr %96, i32 0, i32 0
  %98 = getelementptr inbounds nuw %struct.InvalidationMsgsGroup, ptr %97, i32 0, i32 0
  %99 = getelementptr inbounds [2 x i32], ptr %98, i64 0, i64 1
  store i32 %85, ptr %99, align 4
  br label %100

100:                                              ; preds = %78
  br label %101

101:                                              ; preds = %100
  br label %102

102:                                              ; preds = %101
  br label %103

103:                                              ; preds = %102
  %104 = load ptr, ptr %4, align 8
  %105 = getelementptr inbounds nuw %struct.TransInvalidationInfo, ptr %104, i32 0, i32 0
  %106 = getelementptr inbounds nuw %struct.InvalidationInfo, ptr %105, i32 0, i32 1
  %107 = load i8, ptr %106, align 8, !range !4, !noundef !5
  %108 = trunc i8 %107 to i1
  br i1 %108, label %109, label %115

109:                                              ; preds = %103
  %110 = load ptr, ptr %4, align 8
  %111 = getelementptr inbounds nuw %struct.TransInvalidationInfo, ptr %110, i32 0, i32 2
  %112 = load ptr, ptr %111, align 8
  %113 = getelementptr inbounds nuw %struct.TransInvalidationInfo, ptr %112, i32 0, i32 0
  %114 = getelementptr inbounds nuw %struct.InvalidationInfo, ptr %113, i32 0, i32 1
  store i8 1, ptr %114, align 8
  br label %115

115:                                              ; preds = %109, %103
  %116 = load ptr, ptr %4, align 8
  %117 = getelementptr inbounds nuw %struct.TransInvalidationInfo, ptr %116, i32 0, i32 2
  %118 = load ptr, ptr %117, align 8
  store ptr %118, ptr @transInvalInfo, align 8
  %119 = load ptr, ptr %4, align 8
  call void @pfree(ptr noundef %119)
  br label %127

120:                                              ; preds = %24
  %121 = load ptr, ptr %4, align 8
  %122 = getelementptr inbounds nuw %struct.TransInvalidationInfo, ptr %121, i32 0, i32 1
  call void @ProcessInvalidationMessages(ptr noundef %122, ptr noundef @LocalExecuteInvalidationMessage)
  %123 = load ptr, ptr %4, align 8
  %124 = getelementptr inbounds nuw %struct.TransInvalidationInfo, ptr %123, i32 0, i32 2
  %125 = load ptr, ptr %124, align 8
  store ptr %125, ptr @transInvalInfo, align 8
  %126 = load ptr, ptr %4, align 8
  call void @pfree(ptr noundef %126)
  br label %127

127:                                              ; preds = %120, %115
  store i32 0, ptr %5, align 4
  br label %128

128:                                              ; preds = %127, %41, %23, %15
  call void @llvm.lifetime.end.p0(i64 8, ptr %4) #7
  call void @llvm.lifetime.end.p0(i64 4, ptr %3) #7
  %129 = load i32, ptr %5, align 4
  switch i32 %129, label %131 [
    i32 0, label %130
    i32 1, label %130
  ]

130:                                              ; preds = %128, %128
  ret void

131:                                              ; preds = %128
  unreachable
}