; Function Attrs: nounwind uwtable
define dso_local void @AtEOSubXact_Inval(i1 noundef zeroext %0) local_unnamed_addr #0 {
  br i1 %0, label %3, label %2

2:                                                ; preds = %1
  store ptr null, ptr @inplaceInvalInfo, align 8
  br label %3

3:                                                ; preds = %1, %2
  %4 = load ptr, ptr @transInvalInfo, align 8
  %5 = icmp eq ptr %4, null
  br i1 %5, label %100, label %6

6:                                                ; preds = %3
  %7 = tail call i32 @GetCurrentTransactionNestLevel() #7
  %8 = getelementptr inbounds nuw i8, ptr %4, i64 48
  %9 = load i32, ptr %8, align 8
  %.not = icmp eq i32 %9, %7
  br i1 %.not, label %10, label %100

10:                                               ; preds = %6
  br i1 %0, label %11, label %81

11:                                               ; preds = %10
  %12 = load ptr, ptr @transInvalInfo, align 8
  %13 = icmp eq ptr %12, null
  br i1 %13, label %CommandEndInvalidationMessages.exit, label %14

14:                                               ; preds = %11
  %15 = load i32, ptr %12, align 4
  %16 = getelementptr inbounds nuw i8, ptr %12, i64 8
  %17 = load i32, ptr %16, align 4
  %18 = icmp slt i32 %15, %17
  br i1 %18, label %.lr.ph.preheader.i.i, label %._crit_edge.i.i

.lr.ph.preheader.i.i:                             ; preds = %14
  %19 = sext i32 %15 to i64
  br label %.lr.ph.i.i

.lr.ph.i.i:                                       ; preds = %.lr.ph.i.i, %.lr.ph.preheader.i.i
  %indvars.iv.i.i = phi i64 [ %19, %.lr.ph.preheader.i.i ], [ %indvars.iv.next.i.i, %.lr.ph.i.i ]
  %20 = load ptr, ptr @InvalMessageArrays.0, align 16
  %21 = getelementptr inbounds %union.SharedInvalidationMessage, ptr %20, i64 %indvars.iv.i.i
  tail call void @LocalExecuteInvalidationMessage(ptr noundef %21)
  %indvars.iv.next.i.i = add nsw i64 %indvars.iv.i.i, 1
  %lftr.wideiv.i.i = trunc i64 %indvars.iv.next.i.i to i32
  %exitcond.not.i.i = icmp eq i32 %17, %lftr.wideiv.i.i
  br i1 %exitcond.not.i.i, label %._crit_edge.i.i, label %.lr.ph.i.i, !llvm.loop !9

._crit_edge.i.i:                                  ; preds = %.lr.ph.i.i, %14
  %22 = getelementptr inbounds nuw i8, ptr %12, i64 4
  %23 = load i32, ptr %22, align 4
  %24 = getelementptr inbounds nuw i8, ptr %12, i64 12
  %25 = load i32, ptr %24, align 4
  %26 = icmp slt i32 %23, %25
  br i1 %26, label %.lr.ph4.preheader.i.i, label %ProcessInvalidationMessages.exit.i

.lr.ph4.preheader.i.i:                            ; preds = %._crit_edge.i.i
  %27 = sext i32 %23 to i64
  br label %.lr.ph4.i.i

.lr.ph4.i.i:                                      ; preds = %.lr.ph4.i.i, %.lr.ph4.preheader.i.i
  %indvars.iv7.i.i = phi i64 [ %27, %.lr.ph4.preheader.i.i ], [ %indvars.iv.next8.i.i, %.lr.ph4.i.i ]
  %28 = load ptr, ptr @InvalMessageArrays.2, align 16
  %29 = getelementptr inbounds %union.SharedInvalidationMessage, ptr %28, i64 %indvars.iv7.i.i
  tail call void @LocalExecuteInvalidationMessage(ptr noundef %29)
  %indvars.iv.next8.i.i = add nsw i64 %indvars.iv7.i.i, 1
  %lftr.wideiv10.i.i = trunc i64 %indvars.iv.next8.i.i to i32
  %exitcond11.not.i.i = icmp eq i32 %25, %lftr.wideiv10.i.i
  br i1 %exitcond11.not.i.i, label %ProcessInvalidationMessages.exit.i, label %.lr.ph4.i.i, !llvm.loop !10

ProcessInvalidationMessages.exit.i:               ; preds = %.lr.ph4.i.i, %._crit_edge.i.i
  %30 = load i32, ptr @wal_level, align 4
  %31 = icmp sgt i32 %30, 1
  br i1 %31, label %32, label %33

32:                                               ; preds = %ProcessInvalidationMessages.exit.i
  tail call void @LogLogicalInvalidations()
  br label %33

33:                                               ; preds = %32, %ProcessInvalidationMessages.exit.i
  %34 = load ptr, ptr @transInvalInfo, align 8
  %35 = getelementptr inbounds nuw i8, ptr %34, i64 8
  %36 = load i32, ptr %35, align 4
  %37 = getelementptr inbounds nuw i8, ptr %34, i64 28
  store i32 %36, ptr %37, align 4
  store i32 %36, ptr %34, align 4
  %38 = getelementptr inbounds nuw i8, ptr %34, i64 12
  %39 = load i32, ptr %38, align 4
  %40 = getelementptr inbounds nuw i8, ptr %34, i64 32
  store i32 %39, ptr %40, align 4
  %41 = getelementptr inbounds nuw i8, ptr %34, i64 4
  store i32 %39, ptr %41, align 4
  br label %CommandEndInvalidationMessages.exit

CommandEndInvalidationMessages.exit:              ; preds = %11, %33
  %42 = getelementptr inbounds nuw i8, ptr %4, i64 40
  %43 = load ptr, ptr %42, align 8
  %44 = icmp eq ptr %43, null
  br i1 %44, label %50, label %45

45:                                               ; preds = %CommandEndInvalidationMessages.exit
  %46 = getelementptr inbounds nuw i8, ptr %43, i64 48
  %47 = load i32, ptr %46, align 8
  %48 = add i32 %7, -1
  %49 = icmp slt i32 %47, %48
  br i1 %49, label %50, label %53

50:                                               ; preds = %45, %CommandEndInvalidationMessages.exit
  %51 = load i32, ptr %8, align 8
  %52 = add i32 %51, -1
  store i32 %52, ptr %8, align 8
  br label %100

53:                                               ; preds = %45
  %54 = getelementptr inbounds nuw i8, ptr %4, i64 20
  %55 = getelementptr inbounds nuw i8, ptr %4, i64 28
  %56 = load i32, ptr %55, align 4
  %57 = getelementptr inbounds nuw i8, ptr %43, i64 28
  store i32 %56, ptr %57, align 4
  store i32 %56, ptr %55, align 4
  store i32 %56, ptr %54, align 4
  %58 = getelementptr inbounds nuw i8, ptr %4, i64 32
  %59 = load i32, ptr %58, align 4
  %60 = getelementptr inbounds nuw i8, ptr %43, i64 32
  store i32 %59, ptr %60, align 4
  store i32 %59, ptr %58, align 4
  %61 = getelementptr inbounds nuw i8, ptr %4, i64 24
  store i32 %59, ptr %61, align 4
  %62 = load ptr, ptr %42, align 8
  %63 = getelementptr inbounds nuw i8, ptr %62, i64 28
  %64 = load i32, ptr %63, align 4
  %65 = getelementptr inbounds nuw i8, ptr %62, i64 8
  store i32 %64, ptr %65, align 8
  %66 = load ptr, ptr %42, align 8
  store i32 %64, ptr %66, align 8
  %67 = load ptr, ptr %42, align 8
  %68 = getelementptr inbounds nuw i8, ptr %67, i64 32
  %69 = load i32, ptr %68, align 4
  %70 = getelementptr inbounds nuw i8, ptr %67, i64 12
  store i32 %69, ptr %70, align 4
  %71 = load ptr, ptr %42, align 8
  %72 = getelementptr inbounds nuw i8, ptr %71, i64 4
  store i32 %69, ptr %72, align 4
  %73 = getelementptr inbounds nuw i8, ptr %4, i64 16
  %74 = load i8, ptr %73, align 8, !range !11, !noundef !12
  %75 = trunc nuw i8 %74 to i1
  br i1 %75, label %76, label %79

76:                                               ; preds = %53
  %77 = load ptr, ptr %42, align 8
  %78 = getelementptr inbounds nuw i8, ptr %77, i64 16
  store i8 1, ptr %78, align 8
  br label %79

79:                                               ; preds = %76, %53
  %80 = load ptr, ptr %42, align 8
  store ptr %80, ptr @transInvalInfo, align 8
  tail call void @pfree(ptr noundef nonnull %4) #7
  br label %100

81:                                               ; preds = %10
  %82 = getelementptr inbounds nuw i8, ptr %4, i64 20
  %83 = load i32, ptr %82, align 4
  %84 = getelementptr inbounds nuw i8, ptr %4, i64 28
  %85 = load i32, ptr %84, align 4
  %86 = icmp slt i32 %83, %85
  br i1 %86, label %.lr.ph.preheader.i, label %._crit_edge.i

.lr.ph.preheader.i:                               ; preds = %81
  %87 = sext i32 %83 to i64
  br label %.lr.ph.i

.lr.ph.i:                                         ; preds = %.lr.ph.i, %.lr.ph.preheader.i
  %indvars.iv.i = phi i64 [ %87, %.lr.ph.preheader.i ], [ %indvars.iv.next.i, %.lr.ph.i ]
  %88 = load ptr, ptr @InvalMessageArrays.0, align 16
  %89 = getelementptr inbounds %union.SharedInvalidationMessage, ptr %88, i64 %indvars.iv.i
  tail call void @LocalExecuteInvalidationMessage(ptr noundef %89)
  %indvars.iv.next.i = add nsw i64 %indvars.iv.i, 1
  %lftr.wideiv.i = trunc i64 %indvars.iv.next.i to i32
  %exitcond.not.i = icmp eq i32 %85, %lftr.wideiv.i
  br i1 %exitcond.not.i, label %._crit_edge.i, label %.lr.ph.i, !llvm.loop !9

._crit_edge.i:                                    ; preds = %.lr.ph.i, %81
  %90 = getelementptr inbounds nuw i8, ptr %4, i64 24
  %91 = load i32, ptr %90, align 4
  %92 = getelementptr inbounds nuw i8, ptr %4, i64 32
  %93 = load i32, ptr %92, align 4
  %94 = icmp slt i32 %91, %93
  br i1 %94, label %.lr.ph4.preheader.i, label %ProcessInvalidationMessages.exit

.lr.ph4.preheader.i:                              ; preds = %._crit_edge.i
  %95 = sext i32 %91 to i64
  br label %.lr.ph4.i

.lr.ph4.i:                                        ; preds = %.lr.ph4.i, %.lr.ph4.preheader.i
  %indvars.iv7.i = phi i64 [ %95, %.lr.ph4.preheader.i ], [ %indvars.iv.next8.i, %.lr.ph4.i ]
  %96 = load ptr, ptr @InvalMessageArrays.2, align 16
  %97 = getelementptr inbounds %union.SharedInvalidationMessage, ptr %96, i64 %indvars.iv7.i
  tail call void @LocalExecuteInvalidationMessage(ptr noundef %97)
  %indvars.iv.next8.i = add nsw i64 %indvars.iv7.i, 1
  %lftr.wideiv10.i = trunc i64 %indvars.iv.next8.i to i32
  %exitcond11.not.i = icmp eq i32 %93, %lftr.wideiv10.i
  br i1 %exitcond11.not.i, label %ProcessInvalidationMessages.exit, label %.lr.ph4.i, !llvm.loop !10

ProcessInvalidationMessages.exit:                 ; preds = %.lr.ph4.i, %._crit_edge.i
  %98 = getelementptr inbounds nuw i8, ptr %4, i64 40
  %99 = load ptr, ptr %98, align 8
  store ptr %99, ptr @transInvalInfo, align 8
  tail call void @pfree(ptr noundef nonnull %4) #7
  br label %100

100:                                              ; preds = %79, %ProcessInvalidationMessages.exit, %6, %3, %50
  ret void
}